; Function Attrs: nounwind uwtable
define zeroext range(i8 0, 2) i8 @l_Array_anyMUnsafe_any___at___private_Lean_Elab_MutualInductive_0__Lean_Elab_Command_fixedIndicesToParams_go___spec__3(ptr noundef %0, ptr noundef readonly captures(none) %1, i64 noundef %2, i64 noundef %3) local_unnamed_addr #1 {
  %.not59 = icmp eq i64 %2, %3
  br i1 %.not59, label %.loopexit, label %.lr.ph

.lr.ph:                                           ; preds = %4
  %5 = getelementptr inbounds nuw i8, ptr %1, i64 24
  %6 = ptrtoint ptr %0 to i64
  %7 = and i64 %6, 1
  %.not53 = icmp eq i64 %7, 0
  %8 = lshr i64 %6, 1
  br label %11

9:                                                ; preds = %lean_dec.exit
  %10 = add i64 %.02660, 1
  %.not = icmp eq i64 %10, %3
  br i1 %.not, label %.loopexit, label %11

11:                                               ; preds = %.lr.ph, %9
  %.02660 = phi i64 [ %2, %.lr.ph ], [ %10, %9 ]
  %12 = getelementptr inbounds nuw [0 x ptr], ptr %5, i64 0, i64 %.02660
  %13 = load ptr, ptr %12, align 8, !tbaa !12
  %14 = ptrtoint ptr %13 to i64
  %15 = and i64 %14, 1
  %.not.i42 = icmp eq i64 %15, 0
  br i1 %.not.i42, label %16, label %lean_array_uget.exit

16:                                               ; preds = %11
  %.val.i.i = load i32, ptr %13, align 4, !tbaa !8
  %17 = icmp sgt i32 %.val.i.i, 0
  br i1 %17, label %18, label %20, !prof !11

18:                                               ; preds = %16
  %19 = add nuw i32 %.val.i.i, 1
  store i32 %19, ptr %13, align 4, !tbaa !8
  br label %lean_array_uget.exit

20:                                               ; preds = %16
  %.not.i.i = icmp eq i32 %.val.i.i, 0
  br i1 %.not.i.i, label %lean_array_uget.exit, label %21

21:                                               ; preds = %20
  tail call void @lean_inc_ref_cold(ptr noundef nonnull %13) #5
  br label %lean_array_uget.exit

lean_array_uget.exit:                             ; preds = %11, %18, %20, %21
  %22 = getelementptr i8, ptr %13, i64 8
  %.val = load i64, ptr %22, align 8, !tbaa !4
  %23 = shl i64 %.val, 1
  %24 = or disjoint i64 %23, 1
  %25 = inttoptr i64 %24 to ptr
  br i1 %.not53, label %lean_dec.exit35, label %lean_dec.exit35.thread, !prof !18

lean_dec.exit35:                                  ; preds = %lean_array_uget.exit
  %26 = tail call zeroext i1 @lean_nat_big_lt(ptr noundef %0, ptr noundef nonnull %25) #5
  br i1 %26, label %lean_array_uget.exit.i, label %27

lean_dec.exit35.thread:                           ; preds = %lean_array_uget.exit
  %.not54 = icmp ult ptr %0, %25
  br i1 %.not54, label %35, label %27

27:                                               ; preds = %lean_dec.exit35.thread, %lean_dec.exit35
  br i1 %.not.i42, label %28, label %.loopexit

28:                                               ; preds = %27
  %29 = load i32, ptr %13, align 4, !tbaa !8
  %30 = icmp sgt i32 %29, 1
  br i1 %30, label %31, label %33, !prof !11

31:                                               ; preds = %28
  %32 = add nsw i32 %29, -1
  store i32 %32, ptr %13, align 4, !tbaa !8
  br label %.loopexit

33:                                               ; preds = %28
  %.not.i36 = icmp eq i32 %29, 0
  br i1 %.not.i36, label %.loopexit, label %34

34:                                               ; preds = %33
  tail call void @lean_dec_ref_cold(ptr noundef nonnull %13) #5
  br label %.loopexit

35:                                               ; preds = %lean_dec.exit35.thread
  %36 = icmp ult i64 %8, %.val
  br i1 %36, label %37, label %lean_array_uget.exit.i

37:                                               ; preds = %35
  %38 = getelementptr inbounds nuw i8, ptr %13, i64 24
  %39 = getelementptr inbounds nuw [0 x ptr], ptr %38, i64 0, i64 %8
  %40 = load ptr, ptr %39, align 8, !tbaa !12
  %41 = ptrtoint ptr %40 to i64
  %42 = and i64 %41, 1
  %.not.i11.i = icmp eq i64 %42, 0
  br i1 %.not.i11.i, label %43, label %lean_array_get.exit

43:                                               ; preds = %37
  %.val.i.i.i = load i32, ptr %40, align 4, !tbaa !8
  %44 = icmp sgt i32 %.val.i.i.i, 0
  br i1 %44, label %45, label %47, !prof !11

45:                                               ; preds = %43
  %46 = add nuw i32 %.val.i.i.i, 1
  store i32 %46, ptr %40, align 4, !tbaa !8
  br label %lean_array_get.exit

47:                                               ; preds = %43
  %.not.i.i.i = icmp eq i32 %.val.i.i.i, 0
  br i1 %.not.i.i.i, label %lean_array_get.exit, label %48

48:                                               ; preds = %47
  tail call void @lean_inc_ref_cold(ptr noundef nonnull %40) #5
  br label %lean_array_get.exit

lean_array_uget.exit.i:                           ; preds = %lean_dec.exit35, %35
  %.in.in.in.in = load i8, ptr @l_instInhabitedBool, align 1, !tbaa !16
  %.in.in.in = zext i8 %.in.in.in.in to i64
  %.in.in = shl nuw nsw i64 %.in.in.in, 1
  %.in = or disjoint i64 %.in.in, 1
  %49 = inttoptr i64 %.in to ptr
  %50 = tail call ptr @lean_array_get_panic(ptr noundef nonnull %49) #5
  br label %lean_array_get.exit

lean_array_get.exit:                              ; preds = %37, %45, %47, %48, %lean_array_uget.exit.i
  %.1.i = phi ptr [ %50, %lean_array_uget.exit.i ], [ %40, %48 ], [ %40, %47 ], [ %40, %45 ], [ %40, %37 ]
  br i1 %.not.i42, label %51, label %lean_dec.exit33

51:                                               ; preds = %lean_array_get.exit
  %52 = load i32, ptr %13, align 4, !tbaa !8
  %53 = icmp sgt i32 %52, 1
  br i1 %53, label %54, label %56, !prof !11

54:                                               ; preds = %51
  %55 = add nsw i32 %52, -1
  store i32 %55, ptr %13, align 4, !tbaa !8
  br label %lean_dec.exit33

56:                                               ; preds = %51
  %.not.i38 = icmp eq i32 %52, 0
  br i1 %.not.i38, label %lean_dec.exit33, label %57

57:                                               ; preds = %56
  tail call void @lean_dec_ref_cold(ptr noundef nonnull %13) #5
  br label %lean_dec.exit33

lean_dec.exit33:                                  ; preds = %57, %56, %54, %lean_array_get.exit
  %58 = ptrtoint ptr %.1.i to i64
  %59 = and i64 %58, 1
  %.not56 = icmp eq i64 %59, 0
  br i1 %.not56, label %60, label %lean_dec.exit

60:                                               ; preds = %lean_dec.exit33
  %61 = load i32, ptr %.1.i, align 4, !tbaa !8
  %62 = icmp sgt i32 %61, 1
  br i1 %62, label %63, label %65, !prof !11

63:                                               ; preds = %60
  %64 = add nsw i32 %61, -1
  store i32 %64, ptr %.1.i, align 4, !tbaa !8
  br label %lean_dec.exit

65:                                               ; preds = %60
  %.not.i40 = icmp eq i32 %61, 0
  br i1 %.not.i40, label %lean_dec.exit, label %66

66:                                               ; preds = %65
  tail call void @lean_dec_ref_cold(ptr noundef nonnull %.1.i) #5
  br label %lean_dec.exit

lean_dec.exit:                                    ; preds = %66, %65, %63, %lean_dec.exit33
  %67 = and i64 %58, 510
  %68 = icmp eq i64 %67, 0
  br i1 %68, label %.loopexit, label %9

.loopexit:                                        ; preds = %9, %lean_dec.exit, %4, %34, %33, %31, %27
  %.3.ph = phi i8 [ 1, %27 ], [ 1, %31 ], [ 1, %33 ], [ 1, %34 ], [ 0, %4 ], [ 0, %9 ], [ 1, %lean_dec.exit ]
  ret i8 %.3.ph
}